******************************************************************************
               TMS320C6x Linker PC v6.1.15                     
******************************************************************************
>> Linked Sat Mar 19 20:08:49 2016

OUTPUT FILE NAME:   <RTDSP.out>
ENTRY POINT SYMBOL: "_c_int00"  address: 00017800


MEMORY CONFIGURATION

         name            origin    length      used     unused   attr    fill
----------------------  --------  ---------  --------  --------  ----  --------
  IRAM                  00000000   00040000  0001912f  00026ed1  RWIX
  SDRAM                 80000000   00800000  00000000  00800000  RWIX


SECTION ALLOCATION MAP

 output                                  attributes/
section   page    origin      length       input sections
--------  ----  ----------  ----------   ----------------
.vers      0    00000000    00000040     COPY SECTION
                  00000000    00000040     dsp_bios_cfg.obj (.vers)

.prd       0    00000000    00000000     UNINITIALIZED

.hwi_vec   0    00000000    00000200     
                  00000000    00000200     dsp_bios_cfg.obj (.hwi_vec)

.data      0    00000000    00000000     UNINITIALIZED

.IRAM$heap 
*          0    00000200    00008000     UNINITIALIZED
                  00000200    00008000     --HOLE--

.text      0    00008200    000060c0     
                  00008200    00001380     enchance2.obj (.text)
                  00009580    00000900     rts6700.lib : divd.obj (.text:__divd)
                  00009e80    000008e0     fft_functions.obj (.text)
                  0000a760    00000680     complex.obj (.text)
                  0000ade0    00000620     rts6700.lib : divf.obj (.text:__divf)
                  0000b400    00000480     dsk6713bslccsv4.lib : dsk6713.obj (.text)
                  0000b880    00000380     rts6700.lib : frcmpyd_div.obj (.text:__frcmpyd_div)
                  0000bc00    00000340                 : cos.obj (.text:_cos)
                  0000bf40    00000320                 : sin.obj (.text:_sin)
                  0000c260    000002e0     dsk6713bslccsv4.lib : dsk6713_aic23_opencodec.obj (.text)
                  0000c540    00000280     rts6700.lib : exp.obj (.text:_exp)
                  0000c7c0    00000240                 : memcpy62.obj (.text:_memcpy)
                  0000ca00    00000240                 : sqrt.obj (.text:_sqrt)
                  0000cc40    000001c0     csl6713.lib : csl_irq.obj (.text:_IRQ_map)
                  0000ce00    000001a0                 : csl_mcbsp.obj (.text:_MCBSP_reset)
                  0000cfa0    000001a0     rts6700.lib : ldexp.obj (.text:_ldexp)
                  0000d140    00000180     bios.a67 : gbl_cslpllinit62.o67 (.text)
                  0000d2c0    00000180     dsk6713bslccsv4.lib : dsk6713_aic23_registers.obj (.text)
                  0000d440    00000140     rts6700.lib : strasg.obj (.text:__strasgi)
                  0000d580    00000120                 : sinit.obj (.text:_call_dtors)
                  0000d6a0    00000120                 : frexp.obj (.text:_frexp)
                  0000d7c0    00000120                 : memset.obj (.text:_memset)
                  0000d8e0    00000100     csl6713.lib : csl_mcbsp.obj (.text:_MCBSP_open)
                  0000d9e0    00000100                 : csl_mcbsp.obj (.text:_MCBSP_start)
                  0000dae0    00000100     rts6700.lib : atexit.obj (.text:_atexit)
                  0000dbe0    000000e0                 : frcmpyf_div.obj (.text:__frcmpyf_div)
                  0000dcc0    000000e0                 : round.obj (.text:__nround)
                  0000dda0    000000e0     dsk6713bslccsv4.lib : helper_functions_ISR.obj (.text)
                  0000de80    000000c0     rts6700.lib : modf.obj (.text:_modf)
                  0000df40    000000c0     bios.a67 : tsk_stup.o67 (.text)
                  0000e000    000000a0     rts6700.lib : mpyll.obj (.text:__mpyll)
                  0000e0a0    000000a0     csl6713.lib : csl_irq.obj (.text:_setMux)
                  0000e140    00000040     rts6700.lib : sinit.obj (.text:___add_dtor)
                  0000e180    00000040                 : divd.obj (.text:___isnan)
                  0000e1c0    00000040                 : divf.obj (.text:___isnanf)
                  0000e200    00000040                 : trunc.obj (.text:__trunc)
                  0000e240    00000020                 : _lock.obj (.text:__nop)
                  0000e260    00000020                 : _lock.obj (.text:__register_lock)
                  0000e280    00000020                 : _lock.obj (.text:__register_unlock)
                  0000e2a0    00000020     csl6713.lib : csl_irq.obj (.text)

.bios      0    0000e2c0    00004ac0     
                  0000e2c0    00000600     lnkrtdx.a67 : rtdx.o67 (.bios)
                  0000e8c0    000005e0     bios.a67 : gbl_setL2CacheMode.o67 (.bios)
                  0000eea0    00000540              : swi.o67 (.bios)
                  0000f3e0    00000460              : hwi_disp_asm.o67 (.bios)
                  0000f840    000003e0              : malloc.o67 (.bios)
                  0000fc20    000003a0              : prd.o67 (.bios)
                  0000ffc0    000002c0              : knl_run.o67 (.bios)
                  00010280    000002c0              : rta.o67 (.bios)
                  00010540    000002c0              : sem_pend.o67 (.bios)
                  00010800    00000280              : mem_allo.o67 (.bios:.near)
                  00010a80    00000260              : knl_tick.o67 (.bios)
                  00010ce0    00000240              : mem_free.o67 (.bios:.near)
                  00010f20    00000240              : pip.o67 (.bios)
                  00011160    00000220              : sem_dopo.o67 (.bios)
                  00011380    00000200              : tsk_setu.o67 (.bios)
                  00011580    000001c0              : knl_swit.o67 (.bios)
                  00011740    000001c0     biosC6000.a67 : clk.o67 (.bios)
                  00011900    000001a0     bios.a67 : tsk_exit.o67 (.bios)
                  00011aa0    00000180              : autoinit.o67 (.bios)
                  00011c20    00000180              : tsk_stup.o67 (.bios)
                  00011da0    00000140              : knl_chec.o67 (.bios)
                  00011ee0    000000e0              : gbl_cslcacheinit.o67 (.bios)
                  00011fc0    000000e0              : knl_exit.o67 (.bios)
                  000120a0    000000e0              : sem_post.o67 (.bios)
                  00012180    000000e0              : sem_post_asm.o67 (.bios)
                  00012260    000000e0     biosC6000.a67 : clk_meas.o67 (.bios)
                  00012340    000000c0     bios.a67 : knl_ipos.o67 (.bios)
                  00012400    000000c0              : knl_post.o67 (.bios)
                  000124c0    000000c0              : lck.o67 (.bios)
                  00012580    000000c0              : sys_exit.o67 (.bios)
                  00012640    000000c0     biosC6000.a67 : clk_htime.o67 (.bios)
                  00012700    00000080     bios.a67 : fxn.o67 (.bios)
                  00012780    00000080              : idl_busy.o67 (.bios)
                  00012800    00000080              : log.o67 (.bios)
                  00012880    00000080              : sts.o67 (.bios)
                  00012900    00000080     biosC6000.a67 : idl_cal.o67 (.bios)
                  00012980    00000060     bios.a67 : sys_erro.o67 (.bios:.near)
                  000129e0    00000060              : hwi_c.o67 (.bios)
                  00012a40    00000060              : sem_pend_counting.o67 (.bios)
                  00012aa0    00000060              : sys_abor.o67 (.bios)
                  00012b00    00000060              : utl_putc.o67 (.bios)
                  00012b60    00000060     biosC6000.a67 : clk_start.o67 (.bios)
                  00012bc0    00000040     bios.a67 : idl_stub.o67 (.bios)
                  00012c00    00000040              : rta_andn.o67 (.bios)
                  00012c40    00000040              : utl_doab.o67 (.bios)
                  00012c80    00000040     biosC6000.a67 : clk_stop.o67 (.bios)
                  00012cc0    00000020     bios.a67 : fxn_c.o67 (.bios)
                  00012ce0    00000020              : gbl_vers.o67 (.bios)
                  00012d00    00000020              : idl.o67 (.bios)
                  00012d20    00000020              : sts_set.o67 (.bios)
                  00012d40    00000020              : utl_doer.o67 (.bios)
                  00012d60    00000020              : utl_halt.o67 (.bios)

.far       0    00012d80    000021f4     UNINITIALIZED
                  00012d80    00001c28     enchance2.obj (.far)
                  000149a8    00000188     rts6700.lib : atexit.obj (.far)
                  00014b30    000000f4     csl6713.lib : csl_irq.obj (.far)
                  00014c24    000000d8     bios.a67 : knl.o67 (.far)
                  00014cfc    0000005c              : tsk.o67 (.far)
                  00014d58    00000054              : obj_init.o67 (.far)
                  00014dac    00000050              : tsk_stup.o67 (.far)
                  00014dfc    00000004     rts6700.lib : errno.obj (.far)
                  00014e00    00000040                 : cos.obj (.far)
                  00014e40    00000040                 : sin.obj (.far)
                  00014e80    00000038     csl6713.lib : csl_mcbsp.obj (.far)
                  00014eb8    00000030     rts6700.lib : exp.obj (.far)
                  00014ee8    00000028     dsk6713bslccsv4.lib : dsk6713_aic23_registers.obj (.far)
                  00014f10    00000020     bios.a67 : sys.o67 (.far)
                  00014f30    00000010              : knl_tick.o67 (.far)
                  00014f40    0000000c              : utl_putc.o67 (.far)
                  00014f4c    0000000c     rts6700.lib : exit.obj (.far)
                  00014f58    00000008                 : _lock.obj (.far)
                  00014f60    00000008                 : divd.obj (.far)
                  00014f68    00000008                 : divf.obj (.far)
                  00014f70    00000004                 : sinit.obj (.far)

.args      0    00014f74    00000004     
                  00014f74    00000004     --HOLE-- [fill = 0]

.cinit     0    00014f78    00001614     
                  00014f78    000005ac     dsp_bios_cfg.obj (.cinit)
                  00015524    00000004     --HOLE-- [fill = 0]
                  00015528    00000594     enchance2.obj (.cinit)
                  00015abc    00000004     --HOLE-- [fill = 0]
                  00015ac0    0000026c     bios.a67 : biosdata.o67 (.cinit)
                  00015d2c    00000004     --HOLE-- [fill = 0]
                  00015d30    000001a4              : knl.o67 (.cinit)
                  00015ed4    00000004     --HOLE-- [fill = 0]
                  00015ed8    0000012c     csl6713.lib : csl_irq.obj (.cinit)
                  00016004    00000004     --HOLE-- [fill = 0]
                  00016008    000000b0     bios.a67 : swi.o67 (.cinit)
                  000160b8    00000070              : tsk.o67 (.cinit)
                  00016128    00000060              : tsk_stup.o67 (.cinit)
                  00016188    0000005c     lnkrtdx.a67 : rtdx.o67 (.cinit)
                  000161e4    00000004     --HOLE-- [fill = 0]
                  000161e8    00000054     csl6713.lib : csl_mcbsp.obj (.cinit)
                  0001623c    00000004     --HOLE-- [fill = 0]
                  00016240    0000004c     bios.a67 : rta.o67 (.cinit)
                  0001628c    00000004     --HOLE-- [fill = 0]
                  00016290    0000004c     rtdx.lib : buffer1.o62 (.cinit)
                  000162dc    00000004     --HOLE-- [fill = 0]
                  000162e0    00000048     rts6700.lib : cos.obj (.cinit)
                  00016328    00000048                 : sin.obj (.cinit)
                  00016370    00000040                 : exp.obj (.cinit)
                  000163b0    00000034     bios.a67 : hwi.o67 (.cinit)
                  000163e4    00000004     --HOLE-- [fill = 0]
                  000163e8    00000030     dsk6713bslccsv4.lib : dsk6713_aic23_registers.obj (.cinit)
                  00016418    0000002c     bios.a67 : utl_putc.o67 (.cinit)
                  00016444    00000004     --HOLE-- [fill = 0]
                  00016448    0000002c     rts6700.lib : exit.obj (.cinit)
                  00016474    00000004     --HOLE-- [fill = 0]
                  00016478    00000024     bios.a67 : obj_init.o67 (.cinit)
                  0001649c    00000004     --HOLE-- [fill = 0]
                  000164a0    0000001c              : sys.o67 (.cinit)
                  000164bc    00000004     --HOLE-- [fill = 0]
                  000164c0    0000001c     rts6700.lib : _lock.obj (.cinit)
                  000164dc    00000004     --HOLE-- [fill = 0]
                  000164e0    0000001c                 : atexit.obj (.cinit)
                  000164fc    00000004     --HOLE-- [fill = 0]
                  00016500    00000018     bios.a67 : knl_tick.o67 (.cinit)
                  00016518    00000010     rts6700.lib : divd.obj (.cinit)
                  00016528    00000010                 : divf.obj (.cinit)
                  00016538    0000000c     bios.a67 : gbl_setL2CacheMode.o67 (.cinit)
                  00016544    00000004     --HOLE-- [fill = 0]
                  00016548    0000000c              : idl_busy.o67 (.cinit)
                  00016554    00000004     --HOLE-- [fill = 0]
                  00016558    0000000c              : knl_swit.o67 (.cinit)
                  00016564    00000004     --HOLE-- [fill = 0]
                  00016568    0000000c     rts6700.lib : errno.obj (.cinit)
                  00016574    00000004     --HOLE-- [fill = 0]
                  00016578    0000000c                 : sinit.obj (.cinit)
                  00016584    00000004     --HOLE-- [fill = 0]
                  00016588    00000004     (.pad.cinit) [fill = 0]

.hst1      0    0001658c    00000010     UNINITIALIZED
                  0001658c    00000010     dsp_bios_cfg.obj (.hst1)

.mem       0    0001659c    00000004     UNINITIALIZED
                  0001659c    00000004     dsp_bios_cfg.obj (.mem)

.rtdx_text 
*          0    000165a0    00000ea0     
                  000165a0    00000400     rtdx.lib : rtdx_mon.o62 (.rtdx_text:_RTDX_Poll)
                  000169a0    00000340              : buffer1.o62 (.rtdx_text:_RTDX_Buffer_WriteCB)
                  00016ce0    00000300              : buffer1.o62 (.rtdx_text:_RTDX_write_next)
                  00016fe0    00000140              : rtdx_mon.o62 (.rtdx_text:_RTDX_Mon_Queue)
                  00017120    000000e0              : buffer1.o62 (.rtdx_text:_claim)
                  00017200    00000080              : rtdx_mon.o62 (.rtdx_text:_RTDX_Init_RT_Monitor)
                  00017280    00000060              : buffer1.o62 (.rtdx_text:_RTDX_Buffer_Initialize)
                  000172e0    00000060              : buffer2.o62 (.rtdx_text:_RTDX_Buffer_ReadCB)
                  00017340    00000040              : buffer1.o62 (.rtdx_text:_RTDX_Buffer_Size)
                  00017380    00000040              : rtdx_mon.o62 (.rtdx_text:_RTDX_Final_RT_Monitor)
                  000173c0    00000020              : buffer2.o62 (.rtdx_text:_RTDX_Buffer_Read)
                  000173e0    00000020              : buffer1.o62 (.rtdx_text:_RTDX_Buffer_Write)
                  00017400    00000020              : rtdx_mon.o62 (.rtdx_text:_RTDX_checksum)
                  00017420    00000020              : intr_tgt.o62 (.rtdx_text)

.sysinit   0    00017440    00000520     
                  00017440    000002e0     dsp_bios_cfg.obj (.sysinit)
                  00017720    000000e0     bios.a67 : mem_init.o67 (.sysinit)
                  00017800    000000c0              : boot.o67 (.sysinit)
                  000178c0    00000080              : tsk_init.o67 (.sysinit)
                  00017940    00000020              : obj_init.o67 (.sysinit)

.rtdx_data 
*          0    00017960    0000044c     UNINITIALIZED
                  00017960    00000410     dsp_bios_cfg.obj (.rtdx_data)
                  00017d70    00000020     rtdx.lib : buffer1.o62 (.rtdx_data)
                  00017d90    0000001c              : rtdx_mon.o62 (.rtdx_data)

.TSK_idle$stk 
*          0    00017db0    00000400     UNINITIALIZED
                  00017db0    00000400     dsp_bios_cfg.obj (.TSK_idle$stk)

.stack     0    000181b0    00000400     UNINITIALIZED
                  000181b0    00000400     --HOLE--

.bss       0    000185b0    000003f2     UNINITIALIZED
                  000185b0    00000100     bios.a67 : hwi_disp_asm.o67 (.bss)
                  000186b0    000000cc              : biosdata.o67 (.bss)
                  0001877c    000000a4     enchance2.obj (.bss)
                  00018820    0000009c     bios.a67 : swi.o67 (.bss)
                  000188bc    00000048              : knl.o67 (.bss)
                  00018904    00000028     dsp_bios_cfg.obj (.bss)
                  0001892c    00000018     bios.a67 : hwi.o67 (.bss)
                  00018944    00000018     lnkrtdx.a67 : rtdx.o67 (.bss)
                  0001895c    00000010     rtdx.lib : buffer1.o62 (.bss)
                  0001896c    0000000c     bios.a67 : tsk.o67 (.bss)
                  00018978    00000008              : clk_data.o67 (.bss)
                  00018980    00000008              : sys.o67 (.bss)
                  00018988    00000008     dsk6713bslccsv4.lib : dsk6713_aic23_opencodec.obj (.bss)
                  00018990    00000004     bios.a67 : clk_data2.o67 (.bss)
                  00018994    00000004              : gbl_setL2CacheMode.o67 (.bss)
                  00018998    00000004              : idl_busy.o67 (.bss)
                  0001899c    00000004              : mem_asm.o67 (.bss)
                  000189a0    00000002     dsk6713bslccsv4.lib : dsk6713.obj (.bss)

.trace     0    000189a4    00000200     
                  000189a4    00000200     --HOLE-- [fill = 00000000]

.const     0    00018ba8    00000101     
                  00018ba8    0000004e     bios.a67 : tsk_stup.o67 (.const)
                  00018bf6    00000002     --HOLE-- [fill = 0]
                  00018bf8    00000040     dsk6713bslccsv4.lib : dsk6713_aic23_opencodec.obj (.const)
                  00018c38    00000023     bios.a67 : utl_doab.o67 (.const)
                  00018c5b    00000022              : utl_doer.o67 (.const)
                  00018c7d    00000003     --HOLE-- [fill = 0]
                  00018c80    00000020     dsk6713bslccsv4.lib : dsk6713.obj (.const)
                  00018ca0    00000004     bios.a67 : mem_allo.o67 (.const)
                  00018ca4    00000004              : mem_free.o67 (.const)
                  00018ca8    00000001              : tsk.o67 (.const)

.printf    0    00018ca9    0000003f     COPY SECTION
                  00018ca9    0000003f     dsp_bios_cfg.obj (.printf)

.gblinit   0    00018cac    00000040     
                  00018cac    00000040     dsp_bios_cfg.obj (.gblinit)

.idl       0    00018cec    00000010     UNINITIALIZED
                  00018cec    00000010     dsp_bios_cfg.obj (.idl)

.LOG_system$buf 
*          0    00018d00    00000100     UNINITIALIZED
                  00018d00    00000100     dsp_bios_cfg.obj (.LOG_system$buf)

.hst0      0    00018e00    00000100     UNINITIALIZED
                  00018e00    00000100     dsp_bios_cfg.obj (.hst0)

.pip       0    00018f00    000000c8     UNINITIALIZED
                  00018f00    000000c8     dsp_bios_cfg.obj (.pip)

.tsk       0    00018fc8    00000060     UNINITIALIZED
                  00018fc8    00000060     dsp_bios_cfg.obj (.tsk)

.hst       0    00019028    0000003c     UNINITIALIZED
                  00019028    0000003c     dsp_bios_cfg.obj (.hst)

.sts       0    00019064    00000030     
                  00019064    00000030     dsp_bios_cfg.obj (.sts)

.swi       0    00019094    0000002c     UNINITIALIZED
                  00019094    0000002c     dsp_bios_cfg.obj (.swi)

.switch    0    000190c0    00000028     
                  000190c0    00000028     rtdx.lib : rtdx_mon.o62 (.switch)

.log       0    000190e8    00000018     
                  000190e8    00000018     dsp_bios_cfg.obj (.log)

.idlcal    0    00019100    00000010     UNINITIALIZED
                  00019100    00000010     dsp_bios_cfg.obj (.idlcal)

.sys       0    00019110    00000010     UNINITIALIZED
                  00019110    00000010     dsp_bios_cfg.obj (.sys)

.pinit     0    00019120    0000000c     
                  00019120    00000004     rtdx.lib : buffer1.o62 (.pinit)
                  00019124    00000004              : rtdx_mon.o62 (.pinit)
                  00019128    00000004     --HOLE-- [fill = 0]

.trcdata   0    0001912c    0000000c     
                  0001912c    0000000c     bios.a67 : trc.o67 (.trcdata)

.clk       0    00019138    00000008     UNINITIALIZED
                  00019138    00000008     dsp_bios_cfg.obj (.clk)


GLOBAL SYMBOLS: SORTED ALPHABETICALLY BY Name 

address    name
--------   ----
000185b0   $bss
000185b0   .bss
00000000   .data
00008200   .text
000175fc   BIOS$$CLKOFF
000175bc   BIOS$$CLKON
00017440   BIOS_init
00017664   BIOS_start
00000000   BUF$
00000001   BUF_ENABLED
00000001   CLK$
00019138   CLK_A_TABBEG
00000001   CLK_CALDIV
00000004   CLK_CALMULT
0000dbba   CLK_COUNTSPMS
00000000   CLK_COUNTSPMSHIGH
000186d8   CLK_D_idletime
000186d4   CLK_D_isrhook
000186d0   CLK_D_tabbeg
000186cc   CLK_D_timefxn
00012640   CLK_F_getfhtime
00012660   CLK_F_gethtime
00011740   CLK_F_getltime
00012660   CLK_F_getshtime
00011754   CLK_F_isr
000118b4   CLK_F_itime
0000f3e0   CLK_HOOKFXN
00000001   CLK_HTIMEDIV
00000004   CLK_HTIMEMULT
0000dbba   CLK_HTIMEPERLTIME
00004000   CLK_INTBIT
00000001   CLK_LTIMEDIV
00036ee8   CLK_LTIMEMULT
000003e8   CLK_MICROSECS
0000dbba   CLK_PRD
00000000   CLK_PRDHIGH
01940000   CLK_REGS
000186c8   CLK_R_time
00000020   CLK_TCR
00000000   CLK_TDDR
00000000   CLK_TDDRHIGH
00012660   CLK_TIMEFXN
00000000   CLK_TIMERNUM
00000001   CLK_USETIMER
0001913c   CLK_null
00000000   DEV$
00000000   DGN$
00000000   DHL$
00000000   DHL_gChannelsAvailable
00000000   DIO$
00000000   DIO_NUMSWIBASE
00000000   DIO_NUMTSKBASE
00000000   DIO_STATIC
00000000   DPI$
00012700   FXN_F_nop
00012708   FXN_F_run
00012758   FXN_F_zero
00000001   GBL$
00005205   GBL_A_VERSION
00000000   GBL_BIGENDIAN
00000000   GBL_C641XL2PRIORITY
00000000   GBL_CACHE
00000001   GBL_CALLCSLCFGINIT
00004e20   GBL_CLKIN
00001770   GBL_CLKTYPE
00001a39   GBL_DSPSUBTYPE
0000003e   GBL_DSPTYPE
00000001   GBL_ENABLEINST
00000042   GBL_FOOTPRINT
00036ee8   GBL_FREQ
00002226   GBL_L2ALLOC
00000000   GBL_L2CONFIGALLOC
00000001   GBL_L2CONFIGURE
00000001   GBL_L2MARMASK
00000000   GBL_L2MARMASK1
00000000   GBL_L2MARMASK2
00000000   GBL_L2MARMASK3
00000000   GBL_L2MARMASK4
00000000   GBL_L2MARMASK5
00000000   GBL_L2MODE
00000000   GBL_L2PRIORITY
00000000   GBL_NULL
00000000   GBL_PROCID
00000000   GBL_ROM
00000000   GBL_SUPPORTCSL
0000dbef   GBL_TRCMASKVALUE
00000001   GBL_USERINIT
0000d168   GBL_USERINITFXN
00000001   GBL_boot
00019134   GBL_initdone
000181b0   GBL_stackbeg
000185af   GBL_stackend
00000000   GIO$
00012cc0   GIO_CREATEFXN
00012cc0   GIO_DELETEFXN
00012cc0   GIO_PENDFXN
00012cc0   GIO_POSTFXN
00000000   HOOK$
00000000   HOOK_KNLID
00000001   HST$
00019028   HST_A_TABBEG
00019064   HST_A_TABEND
00000000   HST_DSM
00018910   HST_DSMBUFSEG
00000400   HST_DSMMEMSIZE
00018744   HST_D_chanmask
00018748   HST_D_tabbeg
0001874c   HST_D_tabend
000000ff   HST_MAXFRAMEALLOWED
00000040   HST_MAXFRAMESET
00000000   HST_NONE
00000001   HST_RTDX
00000001   HWI$
00000000   HWI_A_VECS
00004018   HWI_CFGDISPATCHED
0001893c   HWI_D_bss
00018940   HWI_D_ccmask
0001892c   HWI_D_spsave
0000f3e0   HWI_F_dispatch
00000000   HWI_GENERATE_RESET_VEC
0000000a   HWI_INT10
00000000   HWI_INT10$hwi
0000000b   HWI_INT11
00000000   HWI_INT11$hwi
0000000c   HWI_INT12
00000000   HWI_INT12$hwi
0000000d   HWI_INT13
00000000   HWI_INT13$hwi
0000000e   HWI_INT14
00000000   HWI_INT14$hwi
0000000f   HWI_INT15
00000000   HWI_INT15$hwi
00000004   HWI_INT4
00000000   HWI_INT4$hwi
00000005   HWI_INT5
00000000   HWI_INT5$hwi
00000006   HWI_INT6
00000000   HWI_INT6$hwi
00000007   HWI_INT7
00000000   HWI_INT7$hwi
00000008   HWI_INT8
00000000   HWI_INT8$hwi
00000009   HWI_INT9
00000000   HWI_INT9$hwi
082039a3   HWI_INTRMULTHIGH
310718af   HWI_INTRMULTLOW
00000001   HWI_NMI
00000000   HWI_NMI$hwi
00000000   HWI_POLARITYMASK
00000002   HWI_RESERVED0
00000000   HWI_RESERVED0$hwi
00000003   HWI_RESERVED1
00000000   HWI_RESERVED1$hwi
00000000   HWI_RESET
00000000   HWI_RESET$hwi
00000001   HWI_ZEROTAB
00000001   IDL$
00019100   IDL_A_CALBEG
00018cec   IDL_A_TABBEG
00000006   IDL_CALIBRERROR
00012bc0   IDL_CALIBRFXN
00018998   IDL_D_busyObj
000186b8   IDL_D_calbeg
000186b4   IDL_D_calibrate
000186b0   IDL_D_tabbeg
00018cf8   IDL_END
0001910c   IDL_END$
00012780   IDL_F_busy
00012900   IDL_F_calibrate
00012d00   IDL_F_loop
00012bc0   IDL_F_stub
00000001   IDL_USECLKIDLTIME
00019088   IDL_busyObj
00018ce3   IDL_busyObj$avgfmt
00000001   IDL_busyObj$filter
00000001   IDL_busyObj$iA
00000000   IDL_busyObj$iB
00000001   IDL_busyObj$iC
00018cdd   IDL_busyObj$maxfmt
00000000   IDL_busyObj$operation
00019084   IDL_busyObj$stsobj
00018ce0   IDL_busyObj$sumfmt
00000002   IDL_busyObj$unittype
00018cec   IDL_cpuLoad
00019100   IDL_cpuLoad$
00018910   IRAM
00000200   IRAM$B
00008000   IRAM$L
00000001   ISRC$
00011700   KNL_glue
00019094   KNL_swi
00000001   KNL_swi$dorta
00000000   KNL_swi$ord
00000000   KNL_swi$pri
00019068   KNL_swi$sts
00018cb9   KNL_swi$sts$avgfmt
00000002   KNL_swi$sts$filter
00000001   KNL_swi$sts$filtmaxmult
00000001   KNL_swi$sts$filtsummult
00018ca9   KNL_swi$sts$maxfmt
00019064   KNL_swi$sts$stsobj
00018cb1   KNL_swi$sts$sumfmt
00000000   KNL_swi$sts$unittype
00000000   KNL_swi$swi
00000001   LCK$
0000e2c0   LNK_F_checkBufferCall
0000e340   LNK_F_dataPump
0000e2e0   LNK_F_getChanPtr
0000e338   LNK_F_init
0000e884   LNK_F_readCallBack
00018cf0   LNK_dataPump
00019104   LNK_dataPump$
00018948   LNK_dspFrameReadyMask
00018944   LNK_dspFrameRequestMask
0000e5e0   LNK_newin
0000e720   LNK_newout
0000e354   LNK_rcloop
0000e420   LNK_rdrtry
00018950   LNK_readDone
00018954   LNK_readFail
0001894c   LNK_readPend
0000e430   LNK_rrloop
00018958   LNK_writeFail
0000e504   LNK_wrloop
0000e4f4   LNK_wrrtry
00000001   LOG$
000190e8   LOG_A_TABBEG
00019100   LOG_A_TABEND
00000001   LOG_A_TABLEN
000186bc   LOG_D_system
00000001   LOG_ENABLED
00012800   LOG_F_event
000190e8   LOG_system
00018d00   LOG_system$buf
00000000   LOG_system$datatype
00000000   LOG_system$log
00000040   LOG_system$size
00000000   MBX$
00000001   MEM$
00018910   MEM_MALLOCSEG
00000000   MEM_NULL
00018910   MEM_SEGZERO
00000000   MEM_USEMPC
00000001   MEM_gNumHeap
00000000   MSGQ$
00000000   MSGQ_USEMSGQ
00000000   OBJ$
00000000   PIP$
00018f00   PIP_A_TABBEG
00018fc8   PIP_A_TABEND
00000002   PIP_A_TABLEN
000186c0   PIP_D_tabbeg
000186c4   PIP_D_tablen
00010fb4   PIP_F_give
00010fb4   PIP_F_probe
00011088   PIP_F_start
00010f20   PIP_F_take
00000064   PIP_OBJSIZE
00000000   PIP_gNextId
00000002   PIP_gNumEmbed
00000000   POOL$
00000000   POOL_USEPOOL
00000001   PRD$
00000000   PRD_A_TABBEG
00000000   PRD_A_TABEND
00000000   PRD_A_TABLEN
00018700   PRD_D_cur
00018704   PRD_D_elapsed
00018708   PRD_D_prevtim
0001870c   PRD_D_scalar
00018710   PRD_D_swihandle
00018714   PRD_D_tabbeg
00018718   PRD_D_tablen
0001871c   PRD_D_thook
000186fc   PRD_D_tick
0000fc20   PRD_F_swi
0000fee0   PRD_F_tick
00004000   PRD_SCALAR
00000000   PRD_SWIHANDLE
00010cc0   PRD_THOOKFXN
00019138   PRD_clock
00000001   QUE$
00018720   RTA_D_fromHost
00018728   RTA_D_logval
00018738   RTA_D_stsval
00018724   RTA_D_toHost
00012c00   RTA_F_andn
00010378   RTA_F_dispatch
00010280   RTA_F_getlog
000102c4   RTA_F_getsts
00012c20   RTA_F_or
0001030c   RTA_F_readblk
00010338   RTA_F_resetmem
0001032c   RTA_F_writeword
00018cf4   RTA_dispatcher
00019108   RTA_dispatcher$
000103c8   RTA_execute
0001902c   RTA_fromHost
0001658c   RTA_fromHost$buf
00000004   RTA_fromHost$framesize
00000000   RTA_fromHost$hst
00000001   RTA_fromHost$id
00000000   RTA_fromHost$mode
00018f00   RTA_fromHost$pipe
00018f30   RTA_fromHost$pipe$aaa
00018f60   RTA_fromHost$pipe$bbb
00018914   RTA_fromHost$pipe$dtab
00018f04   RTA_fromHost$pipe$rd
00018f34   RTA_fromHost$pipe$wr
00019034   RTA_fromHost$rtdx
00019048   RTA_toHost
00018e00   RTA_toHost$buf
00000040   RTA_toHost$framesize
00000000   RTA_toHost$hst
00000000   RTA_toHost$id
00000001   RTA_toHost$mode
00018f64   RTA_toHost$pipe
00018f94   RTA_toHost$pipe$aaa
00018fc4   RTA_toHost$pipe$bbb
00018920   RTA_toHost$pipe$dtab
00018f68   RTA_toHost$pipe$rd
00018f98   RTA_toHost$pipe$wr
00019050   RTA_toHost$rtdx
00000001   RTDX$
00000408   RTDX_BUFMEMSIZE
00018910   RTDX_DATAMEMSEG
00000000   RTDX_MODE
00000001   RTDX_NORMALIZED_HDR
00000001   RTDX_USERTDX
00000000   RTDX_USERTEXECUTION
ffffffff   SDRAM
00000000   SEM$
00000000   SIO$
00000001   STS$
00019064   STS_A_TABBEG
00019094   STS_A_TABEND
000128b8   STS_F_add
00012880   STS_F_delta
000128e4   STS_F_reset
00000001   SWI$
00019094   SWI_A_TABBEG
000190c0   SWI_A_TABEND
00000001   SWI_A_TABLEN
00018838   SWI_D_curfxn
00018828   SWI_D_curmask
00018834   SWI_D_curmbox
0001882c   SWI_D_curset
00018824   SWI_D_execaddr
00018840   SWI_D_inswi
00018830   SWI_D_lock
0001883c   SWI_D_rdybeg
00018844   SWI_D_rdytab
00018820   SWI_D_runaddr
00000000   SWI_EHOOKFXN
0000f0bc   SWI_EXECFXN
0000eea0   SWI_F_enable
0000f0bc   SWI_F_exec
0000f0e8   SWI_F_iexec
0000ef10   SWI_F_post
0000f178   SWI_F_run
00000000   SWI_IHOOKFXN
0000f178   SWI_RUNFXN
00000001   SYS$
00019110   SYS$config
00012c40   SYS_ABORTFXN
00012d40   SYS_ERRORFXN
00012d60   SYS_EXITFXN
00012b00   SYS_PUTCFXN
00019130   TRC_R_mask
0001912c   TRC_cinit
00000001   TSK$
00000000   TSK_NUM_HOOKS
00000001   TSK_PRIORITY
00000000   TSK_READYFXN
00000000   TSK_STACKSEG
00000400   TSK_STACKSIZE
00000000   TSK_SWITCHFXN
00012cc0   TSK_VCREATEFXN
00012cc0   TSK_VDELETEFXN
00012cc0   TSK_VEXITFXN
00018fd4   TSK_idle
00000000   TSK_idle$ord
00000000   TSK_idle$pri
00017db0   TSK_idle$stack
00018148   TSK_idle$stkptr
00019078   TSK_idle$sts
00018cd3   TSK_idle$sts$avgfmt
00000002   TSK_idle$sts$filter
00000001   TSK_idle$sts$filtmaxmult
00000001   TSK_idle$sts$filtsummult
00018cc3   TSK_idle$sts$maxfmt
00019074   TSK_idle$sts$stsobj
00018ccb   TSK_idle$sts$sumfmt
00000000   TSK_idle$sts$unittype
00000000   TSK_idle$tsk
00000000   UDEV$
00017440   _BIOS_init
00017664   _BIOS_start
000187a0   _C
0000dbba   _CLK_COUNTSPMS
00018978   _CLK_DFLTMICROSECS
000186f8   _CLK_D_countspms
000186ec   _CLK_D_dirty
0001897c   _CLK_D_microseconds
000186f0   _CLK_D_prd
000186f4   _CLK_D_tddr
000118b4   _CLK_F_itime
0000dbba   _CLK_PRD
01940000   _CLK_REGS
00000000   _CLK_TDDR
00000000   _CLK_TIMERNUM
00000001   _CLK_USETIMER
000186dc   _CLK_htimeDiv
000186e0   _CLK_htimeMult
00018990   _CLK_htimePerLtime
000118b4   _CLK_itime
000186e4   _CLK_ltimeDiv
000186e8   _CLK_ltimeMult
00012260   _CLK_measure
00012b60   _CLK_start
00012c80   _CLK_stop
00013580   _Config
00018988   _DSK6713_AIC23_codeccontrolhandle
0001898c   _DSK6713_AIC23_codecdatahandle
0000d3ac   _DSK6713_AIC23_config
0000c260   _DSK6713_AIC23_openCodec
0000d388   _DSK6713_AIC23_rget
0000d2c0   _DSK6713_AIC23_rset
0000b580   _DSK6713_getVersion
0000b5d0   _DSK6713_init
0000b4ec   _DSK6713_rget
0000b4d8   _DSK6713_rset
000189a0   _DSK6713_version
0000b400   _DSK6713_wait
0000b4a4   _DSK6713_waitusec
00012cc0   _FXN_F_nop
00012708   _FXN_F_run
00012758   _FXN_F_zero
00013180   _G
00000000   _GBL_CACHE
00018754   _GBL_clkIn
00011ee0   _GBL_cslCacheInit
00018758   _GBL_freq
00012ce0   _GBL_getVersion
00018750   _GBL_procId
0000d168   _GBL_setPLLto225MHz
00019028   _HST_A_TABBEG
00019064   _HST_A_TABEND
00004018   _HWI_CFGDISPATCHED
00018938   _HWI_D_inhwi
0001892c   _HWI_D_spsave
0000f3e0   _HWI_F_dispatch
0000000a   _HWI_INT10
0000000b   _HWI_INT11
0000000c   _HWI_INT12
0000000d   _HWI_INT13
0000000e   _HWI_INT14
0000000f   _HWI_INT15
00000004   _HWI_INT4
00000005   _HWI_INT5
00000006   _HWI_INT6
00000007   _HWI_INT7
00000008   _HWI_INT8
00000009   _HWI_INT9
00000001   _HWI_NMI
00000002   _HWI_RESERVED0
00000003   _HWI_RESERVED1
00000000   _HWI_RESET
000185a8   _HWI_STKBOTTOM
000181b0   _HWI_STKTOP
0001892c   _HWI_data
000129e0   _HWI_disable
000185b0   _HWI_dispatchTab
000129f8   _HWI_enable
00012a0c   _HWI_restore
0001879c   _H_Codec
00019088   _IDL_busyObj
00018cec   _IDL_cpuLoad
00012d00   _IDL_loop
00018910   _IRAM
00000200   _IRAM_base
00008000   _IRAM_length
0000cc40   _IRQ_map
000094c4   _ISR_AIC
0001881c   _K
000188c4   _KNL_alarm
00011da0   _KNL_check
000188e8   _KNL_curqueue
000188d8   _KNL_curtask
000188e0   _KNL_curtime
00014cc4   _KNL_dummy
00012014   _KNL_enter
00011fc0   _KNL_exit
00011e78   _KNL_idle
00018900   _KNL_idlefxn
000188cc   _KNL_inactive
00012340   _KNL_ipost
00011e9c   _KNL_max
000188ec   _KNL_maxqueue
00012400   _KNL_post
000188dc   _KNL_prevtask
000188d0   _KNL_priority
00014c24   _KNL_queues
0000ffc0   _KNL_run
00011580   _KNL_saveIsrFrame
000188d4   _KNL_set
000188c8   _KNL_setpri
00019094   _KNL_swi
000188e4   _KNL_swiptr
0001164c   _KNL_switch
000188f4   _KNL_tcreatefxn
000188f8   _KNL_tdeletefxn
00010cc0   _KNL_tick
000188fc   _KNL_treadyfxn
000188f0   _KNL_tswitchfxn
000188bc   _KNL_wFlag
000188c0   _KNL_wList
000124f0   _LCK_pend
000124c0   _LCK_post
00018cf0   _LNK_dataPump
00018948   _LNK_dspFrameReadyMask
00018944   _LNK_dspFrameRequestMask
00018950   _LNK_readDone
00018954   _LNK_readFail
0001894c   _LNK_readPend
00018958   _LNK_writeFail
000190e8   _LOG_A_TABBEG
00019100   _LOG_A_TABEND
00000001   _LOG_A_TABLEN
000186bc   _LOG_D_system
00012800   _LOG_event
000190e8   _LOG_system
0000d8e0   _MCBSP_open
0000ce00   _MCBSP_reset
0000d9e0   _MCBSP_start
0001899c   _MEM
0001875c   _MEM_D_NUMSEGMENTS
00018764   _MEM_D_freelist
00018768   _MEM_D_lockaddr
00018760   _MEM_D_memtab
0001876c   _MEM_D_unlockaddr
00010800   _MEM_alloc
00010ce0   _MEM_free
00017720   _MEM_init
00018904   _MEM_memtab
000187d0   _N
00017940   _OBJ_init
00014d90   _OBJ_segtab
00014d58   _OBJ_table
000187b4   _P
00018f00   _PIP_A_TABBEG
00018fc8   _PIP_A_TABEND
000187c0   _PP
000186fc   _PRD_D_tick
00019138   _PRD_clock
00008200   _ProcVswitch_estimator
00018798   _RNR_flag
00018794   _RNR_threhold
00018cf4   _RTA_dispatcher
0001902c   _RTA_fromHost
00019048   _RTA_toHost
00017960   _RTDX_Buffer
00017d6c   _RTDX_Buffer_End
00017280   _RTDX_Buffer_Initialize
000173c0   _RTDX_Buffer_Read
000172e0   _RTDX_Buffer_ReadCB
00017340   _RTDX_Buffer_Size
00017d68   _RTDX_Buffer_Start
000173e0   _RTDX_Buffer_Write
000169a0   _RTDX_Buffer_WriteCB
00017380   _RTDX_Final_RT_Monitor
00017200   _RTDX_Init_RT_Monitor
00000002   _RTDX_JTAGONLY
00017420   _RTDX_Mask_IER
00016fe0   _RTDX_Mon_Queue
000165a0   _RTDX_Poll
00000000   _RTDX_interrupt_mask
00017d7c   _RTDX_writing
ffffffff   _SDRAM
00012a40   _SEM_pend
00010540   _SEM_pendEnterKnl
00012180   _SEM_post
00012180   _SEM_postBinary
000120a0   _SEM_postEnterKnl
00019064   _STS_A_TABBEG
00019094   _STS_A_TABEND
000128b8   _STS_add
00012880   _STS_delta
000128e4   _STS_reset
00012d20   _STS_set
00018838   _SWI_D_curfxn
00018828   _SWI_D_curmask
0001882c   _SWI_D_curset
00018824   _SWI_D_execaddr
00018840   _SWI_D_inswi
00018830   _SWI_D_lock
0001883c   _SWI_D_rdybeg
00018820   _SWI_D_runaddr
00018820   _SWI_data
0000ef10   _SWI_post
00018770   _SYS
000189a4   _SYS_PUTCBEG
00018ba3   _SYS_PUTCEND
00012aa0   _SYS_abort
00012980   _SYS_error
00012580   _SYS_exit
00014f10   _SYS_exitStack
00018980   _SYS_exitStackPtr
00018984   _SYS_exitStackTop
00019130   _TRC_R_mask
00018974   _TSK
00014cfc   _TSK_ATTRS
00014d18   _TSK_config
00011900   _TSK_exit
00018fd4   _TSK_idle
000178c0   _TSK_init
0001896c   _TSK_nTasks
00018970   _TSK_pid
00011380   _TSK_setup
00011ce0   _TSK_startup
00014d38   _TSK_timerSem
00012c40   _UTL_doAbort
00012d40   _UTL_doError
00012b00   _UTL_doPutc
00012d60   _UTL_halt
000118d0   __CLK_lat1beg
000118fc   __CLK_lat1end
0000ecf4   __GBL_setL2CacheMode
00018778   __HOOK_NUMHOOKS
00018774   __HOOK_knlId
0000f3e0   __HWI_lat1beg
0000f560   __HWI_lat1end
0000f560   __HWI_lat2beg
0000f700   __HWI_lat2end1
0000f68c   __HWI_lat2end2
0000f720   __HWI_lat3beg
0000f820   __HWI_lat3end1
0000f6bc   __HWI_lat3end2
00012780   __IDL_lat1beg
000127d0   __IDL_lat1end
00014c1c   __IRQ_dispatchTable
00014b58   __IRQ_eventTable
0000e2a0   __IRQ_hookFetchPacket
00014bdc   __IRQ_intTable
00011df0   __KNL_lat1beg
00011e78   __KNL_lat1end
00012800   __LOG_lat1beg
00014eb0   __MCBSP_hDev0
00014eb4   __MCBSP_hDev1
00014dd4   __MEM_mutex
00010338   __RTA_lat1beg
00010370   __RTA_lat1end
00011160   __SEM_dopost
00000400   __STACK_SIZE
0000f04c   __SWI_lat1beg
0000f100   __SWI_lat1end
0000f104   __SWI_lat2beg
0000f174   __SWI_lat2end
0000eea0   __SWI_lat3beg
0000ef0c   __SWI_lat3end
00014dac   __TSK_mutex
00014f54   ___TI_enable_exit_profile_output
ffffffff   ___TI_pprof_out_hndl
ffffffff   ___TI_prof_data_size
ffffffff   ___TI_prof_data_start
0000e140   ___add_dtor
000149a8   ___atexit_func_id__
ffffffff   ___binit__
000185b0   ___bss__
ffffffff   ___c_args__
00014f78   ___cinit__
00000000   ___data__
00000000   ___edata__
000189a2   ___end__
0000e2c0   ___etext__
00019120   ___pinit__
00008200   ___text__
00011aa0   __auto_init
00014f4c   __cleanup_ptr
00009580   __divd
0000ade0   __divf
00014f50   __dtors_ptr
0000b880   __frcmpyd_div
0000dbe0   __frcmpyf_div
00014f58   __lock
0000e000   __mpyll
0000e240   __nop
0000dcc0   __nround
0000e260   __register_lock
0000e280   __register_unlock
000181b0   __stack
0000d440   __strasgi
0000e200   __trunc
00014f5c   __unlock
0000ac74   _aimag
0001877c   _alpha
0000dae0   _atexit
00018814   _beta
00009ee0   _bitrev
00017800   _c_int00
0000a760   _cabs
0000a864   _cadd
0000d580   _call_dtors
0000fb88   _calloc
0000aa88   _cdiv
0000acac   _cexp
0000a7d0   _cmplx
0000a97c   _cmul
0000a810   _conjg
0000bc00   _cos
000187f0   _cpufrac
0000a8f0   _csub
0000a428   _dft
0000a0e0   _dftmerge
00014f70   _dtors
00014dfc   _errno
0000c540   _exp
0000a2d8   _fft
000187fc   _frame_count
000187cc   _frame_mag
000135a8   _frame_min_buffer
000187f8   _frame_ptr
0000f840   _free
0000d6a0   _frexp
00018790   _gain_var
00018810   _gamma
0000a32c   _ifft
00018788   _in_filt
000187a4   _inbuffer
000187b0   _inframe
000187e8   _ingain
00008e34   _init_HWI
00008d88   _init_buffer
00008ce0   _init_hardware
00008ec0   _init_thres
000187c4   _inwin
000187f4   _io_ptr
00018780   _lambda
000187b8   _last_P
000187bc   _last_PP
0000cfa0   _ldexp
000187dc   _local_min
00009028   _main
0000f86c   _malloc
0000fa34   _memalign
0000c7c0   _memcpy
0000d7c0   _memset
00018800   _min_buffer_index
0000de80   _modf
0000de1c   _mono_read_16Bit
0000ddf4   _mono_write_16Bit
000145a8   _mu_k
00018804   _noise_amp
000187d4   _out_buff
0001878c   _out_filt
000187a8   _outbuffer
000187ac   _outframe
000187ec   _outgain
000187c8   _outwin
00018808   _prob_const
00008a14   _process_frame
0000aba4   _rdiv
0000ac3c   _real
0000f8f0   _realloc
0000aa1c   _rmul
00018964   _rtdxNullChanCnt
00018968   _rtdxNullFuncCnt
00017d70   _rtdx_buffer_state
00017d90   _rtdx_mon_state
00009f6c   _shuffle
0000bf40   _sin
000187d8   _speech_prob
000187e4   _speech_thres
0000ca00   _sqrt
0000ddc8   _stereo_read_16Bit
0000dda0   _stereo_write_16Bit
0001880c   _sub_const
000187e0   _subfactor
00009e80   _swap
00018784   _tau
00012d80   _upperbound
00018818   _v
0000d140   _wait500nS
ffffffff   binit
00014f78   cinit
00000000   edata
000189a2   end
0000e2c0   etext
00000000   hwi0
00000020   hwi1
00000140   hwi10
00000160   hwi11
00000180   hwi12
000001a0   hwi13
000001c0   hwi14
000001e0   hwi15
00000040   hwi2
00000060   hwi3
00000080   hwi4
000000a0   hwi5
000000c0   hwi6
000000e0   hwi7
00000100   hwi8
00000120   hwi9
00019120   pinit


GLOBAL SYMBOLS: SORTED BY Symbol Address 

address    name
--------   ----
00000000   .data
00000000   BUF$
00000000   CLK_COUNTSPMSHIGH
00000000   CLK_PRDHIGH
00000000   CLK_TDDR
00000000   CLK_TDDRHIGH
00000000   CLK_TIMERNUM
00000000   DEV$
00000000   DGN$
00000000   DHL$
00000000   DHL_gChannelsAvailable
00000000   DIO$
00000000   DIO_NUMSWIBASE
00000000   DIO_NUMTSKBASE
00000000   DIO_STATIC
00000000   DPI$
00000000   GBL_BIGENDIAN
00000000   GBL_C641XL2PRIORITY
00000000   GBL_CACHE
00000000   GBL_L2CONFIGALLOC
00000000   GBL_L2MARMASK1
00000000   GBL_L2MARMASK2
00000000   GBL_L2MARMASK3
00000000   GBL_L2MARMASK4
00000000   GBL_L2MARMASK5
00000000   GBL_L2MODE
00000000   GBL_L2PRIORITY
00000000   GBL_NULL
00000000   GBL_PROCID
00000000   GBL_ROM
00000000   GBL_SUPPORTCSL
00000000   GIO$
00000000   HOOK$
00000000   HOOK_KNLID
00000000   HST_DSM
00000000   HST_NONE
00000000   HWI_A_VECS
00000000   HWI_GENERATE_RESET_VEC
00000000   HWI_INT10$hwi
00000000   HWI_INT11$hwi
00000000   HWI_INT12$hwi
00000000   HWI_INT13$hwi
00000000   HWI_INT14$hwi
00000000   HWI_INT15$hwi
00000000   HWI_INT4$hwi
00000000   HWI_INT5$hwi
00000000   HWI_INT6$hwi
00000000   HWI_INT7$hwi
00000000   HWI_INT8$hwi
00000000   HWI_INT9$hwi
00000000   HWI_NMI$hwi
00000000   HWI_POLARITYMASK
00000000   HWI_RESERVED0$hwi
00000000   HWI_RESERVED1$hwi
00000000   HWI_RESET
00000000   HWI_RESET$hwi
00000000   IDL_busyObj$iB
00000000   IDL_busyObj$operation
00000000   KNL_swi$ord
00000000   KNL_swi$pri
00000000   KNL_swi$sts$unittype
00000000   KNL_swi$swi
00000000   LOG_system$datatype
00000000   LOG_system$log
00000000   MBX$
00000000   MEM_NULL
00000000   MEM_USEMPC
00000000   MSGQ$
00000000   MSGQ_USEMSGQ
00000000   OBJ$
00000000   PIP$
00000000   PIP_gNextId
00000000   POOL$
00000000   POOL_USEPOOL
00000000   PRD_A_TABBEG
00000000   PRD_A_TABEND
00000000   PRD_A_TABLEN
00000000   PRD_SWIHANDLE
00000000   RTA_fromHost$hst
00000000   RTA_fromHost$mode
00000000   RTA_toHost$hst
00000000   RTA_toHost$id
00000000   RTDX_MODE
00000000   RTDX_USERTEXECUTION
00000000   SEM$
00000000   SIO$
00000000   SWI_EHOOKFXN
00000000   SWI_IHOOKFXN
00000000   TSK_NUM_HOOKS
00000000   TSK_READYFXN
00000000   TSK_STACKSEG
00000000   TSK_SWITCHFXN
00000000   TSK_idle$ord
00000000   TSK_idle$pri
00000000   TSK_idle$sts$unittype
00000000   TSK_idle$tsk
00000000   UDEV$
00000000   _CLK_TDDR
00000000   _CLK_TIMERNUM
00000000   _GBL_CACHE
00000000   _HWI_RESET
00000000   _RTDX_interrupt_mask
00000000   ___data__
00000000   ___edata__
00000000   edata
00000000   hwi0
00000001   BUF_ENABLED
00000001   CLK$
00000001   CLK_CALDIV
00000001   CLK_HTIMEDIV
00000001   CLK_LTIMEDIV
00000001   CLK_USETIMER
00000001   GBL$
00000001   GBL_CALLCSLCFGINIT
00000001   GBL_ENABLEINST
00000001   GBL_L2CONFIGURE
00000001   GBL_L2MARMASK
00000001   GBL_USERINIT
00000001   GBL_boot
00000001   HST$
00000001   HST_RTDX
00000001   HWI$
00000001   HWI_NMI
00000001   HWI_ZEROTAB
00000001   IDL$
00000001   IDL_USECLKIDLTIME
00000001   IDL_busyObj$filter
00000001   IDL_busyObj$iA
00000001   IDL_busyObj$iC
00000001   ISRC$
00000001   KNL_swi$dorta
00000001   KNL_swi$sts$filtmaxmult
00000001   KNL_swi$sts$filtsummult
00000001   LCK$
00000001   LOG$
00000001   LOG_A_TABLEN
00000001   LOG_ENABLED
00000001   MEM$
00000001   MEM_gNumHeap
00000001   PRD$
00000001   QUE$
00000001   RTA_fromHost$id
00000001   RTA_toHost$mode
00000001   RTDX$
00000001   RTDX_NORMALIZED_HDR
00000001   RTDX_USERTDX
00000001   STS$
00000001   SWI$
00000001   SWI_A_TABLEN
00000001   SYS$
00000001   TSK$
00000001   TSK_PRIORITY
00000001   TSK_idle$sts$filtmaxmult
00000001   TSK_idle$sts$filtsummult
00000001   _CLK_USETIMER
00000001   _HWI_NMI
00000001   _LOG_A_TABLEN
00000002   HWI_RESERVED0
00000002   IDL_busyObj$unittype
00000002   KNL_swi$sts$filter
00000002   PIP_A_TABLEN
00000002   PIP_gNumEmbed
00000002   TSK_idle$sts$filter
00000002   _HWI_RESERVED0
00000002   _RTDX_JTAGONLY
00000003   HWI_RESERVED1
00000003   _HWI_RESERVED1
00000004   CLK_CALMULT
00000004   CLK_HTIMEMULT
00000004   HWI_INT4
00000004   RTA_fromHost$framesize
00000004   _HWI_INT4
00000005   HWI_INT5
00000005   _HWI_INT5
00000006   HWI_INT6
00000006   IDL_CALIBRERROR
00000006   _HWI_INT6
00000007   HWI_INT7
00000007   _HWI_INT7
00000008   HWI_INT8
00000008   _HWI_INT8
00000009   HWI_INT9
00000009   _HWI_INT9
0000000a   HWI_INT10
0000000a   _HWI_INT10
0000000b   HWI_INT11
0000000b   _HWI_INT11
0000000c   HWI_INT12
0000000c   _HWI_INT12
0000000d   HWI_INT13
0000000d   _HWI_INT13
0000000e   HWI_INT14
0000000e   _HWI_INT14
0000000f   HWI_INT15
0000000f   _HWI_INT15
00000020   CLK_TCR
00000020   hwi1
0000003e   GBL_DSPTYPE
00000040   HST_MAXFRAMESET
00000040   LOG_system$size
00000040   RTA_toHost$framesize
00000040   hwi2
00000042   GBL_FOOTPRINT
00000060   hwi3
00000064   PIP_OBJSIZE
00000080   hwi4
000000a0   hwi5
000000c0   hwi6
000000e0   hwi7
000000ff   HST_MAXFRAMEALLOWED
00000100   hwi8
00000120   hwi9
00000140   hwi10
00000160   hwi11
00000180   hwi12
000001a0   hwi13
000001c0   hwi14
000001e0   hwi15
00000200   IRAM$B
00000200   _IRAM_base
000003e8   CLK_MICROSECS
00000400   HST_DSMMEMSIZE
00000400   TSK_STACKSIZE
00000400   __STACK_SIZE
00000408   RTDX_BUFMEMSIZE
00001770   GBL_CLKTYPE
00001a39   GBL_DSPSUBTYPE
00002226   GBL_L2ALLOC
00004000   CLK_INTBIT
00004000   PRD_SCALAR
00004018   HWI_CFGDISPATCHED
00004018   _HWI_CFGDISPATCHED
00004e20   GBL_CLKIN
00005205   GBL_A_VERSION
00008000   IRAM$L
00008000   _IRAM_length
00008200   .text
00008200   _ProcVswitch_estimator
00008200   ___text__
00008a14   _process_frame
00008ce0   _init_hardware
00008d88   _init_buffer
00008e34   _init_HWI
00008ec0   _init_thres
00009028   _main
000094c4   _ISR_AIC
00009580   __divd
00009e80   _swap
00009ee0   _bitrev
00009f6c   _shuffle
0000a0e0   _dftmerge
0000a2d8   _fft
0000a32c   _ifft
0000a428   _dft
0000a760   _cabs
0000a7d0   _cmplx
0000a810   _conjg
0000a864   _cadd
0000a8f0   _csub
0000a97c   _cmul
0000aa1c   _rmul
0000aa88   _cdiv
0000aba4   _rdiv
0000ac3c   _real
0000ac74   _aimag
0000acac   _cexp
0000ade0   __divf
0000b400   _DSK6713_wait
0000b4a4   _DSK6713_waitusec
0000b4d8   _DSK6713_rset
0000b4ec   _DSK6713_rget
0000b580   _DSK6713_getVersion
0000b5d0   _DSK6713_init
0000b880   __frcmpyd_div
0000bc00   _cos
0000bf40   _sin
0000c260   _DSK6713_AIC23_openCodec
0000c540   _exp
0000c7c0   _memcpy
0000ca00   _sqrt
0000cc40   _IRQ_map
0000ce00   _MCBSP_reset
0000cfa0   _ldexp
0000d140   _wait500nS
0000d168   GBL_USERINITFXN
0000d168   _GBL_setPLLto225MHz
0000d2c0   _DSK6713_AIC23_rset
0000d388   _DSK6713_AIC23_rget
0000d3ac   _DSK6713_AIC23_config
0000d440   __strasgi
0000d580   _call_dtors
0000d6a0   _frexp
0000d7c0   _memset
0000d8e0   _MCBSP_open
0000d9e0   _MCBSP_start
0000dae0   _atexit
0000dbba   CLK_COUNTSPMS
0000dbba   CLK_HTIMEPERLTIME
0000dbba   CLK_PRD
0000dbba   _CLK_COUNTSPMS
0000dbba   _CLK_PRD
0000dbe0   __frcmpyf_div
0000dbef   GBL_TRCMASKVALUE
0000dcc0   __nround
0000dda0   _stereo_write_16Bit
0000ddc8   _stereo_read_16Bit
0000ddf4   _mono_write_16Bit
0000de1c   _mono_read_16Bit
0000de80   _modf
0000e000   __mpyll
0000e140   ___add_dtor
0000e200   __trunc
0000e240   __nop
0000e260   __register_lock
0000e280   __register_unlock
0000e2a0   __IRQ_hookFetchPacket
0000e2c0   LNK_F_checkBufferCall
0000e2c0   ___etext__
0000e2c0   etext
0000e2e0   LNK_F_getChanPtr
0000e338   LNK_F_init
0000e340   LNK_F_dataPump
0000e354   LNK_rcloop
0000e420   LNK_rdrtry
0000e430   LNK_rrloop
0000e4f4   LNK_wrrtry
0000e504   LNK_wrloop
0000e5e0   LNK_newin
0000e720   LNK_newout
0000e884   LNK_F_readCallBack
0000ecf4   __GBL_setL2CacheMode
0000eea0   SWI_F_enable
0000eea0   __SWI_lat3beg
0000ef0c   __SWI_lat3end
0000ef10   SWI_F_post
0000ef10   _SWI_post
0000f04c   __SWI_lat1beg
0000f0bc   SWI_EXECFXN
0000f0bc   SWI_F_exec
0000f0e8   SWI_F_iexec
0000f100   __SWI_lat1end
0000f104   __SWI_lat2beg
0000f174   __SWI_lat2end
0000f178   SWI_F_run
0000f178   SWI_RUNFXN
0000f3e0   CLK_HOOKFXN
0000f3e0   HWI_F_dispatch
0000f3e0   _HWI_F_dispatch
0000f3e0   __HWI_lat1beg
0000f560   __HWI_lat1end
0000f560   __HWI_lat2beg
0000f68c   __HWI_lat2end2
0000f6bc   __HWI_lat3end2
0000f700   __HWI_lat2end1
0000f720   __HWI_lat3beg
0000f820   __HWI_lat3end1
0000f840   _free
0000f86c   _malloc
0000f8f0   _realloc
0000fa34   _memalign
0000fb88   _calloc
0000fc20   PRD_F_swi
0000fee0   PRD_F_tick
0000ffc0   _KNL_run
00010280   RTA_F_getlog
000102c4   RTA_F_getsts
0001030c   RTA_F_readblk
0001032c   RTA_F_writeword
00010338   RTA_F_resetmem
00010338   __RTA_lat1beg
00010370   __RTA_lat1end
00010378   RTA_F_dispatch
000103c8   RTA_execute
00010540   _SEM_pendEnterKnl
00010800   _MEM_alloc
00010cc0   PRD_THOOKFXN
00010cc0   _KNL_tick
00010ce0   _MEM_free
00010f20   PIP_F_take
00010fb4   PIP_F_give
00010fb4   PIP_F_probe
00011088   PIP_F_start
00011160   __SEM_dopost
00011380   _TSK_setup
00011580   _KNL_saveIsrFrame
0001164c   _KNL_switch
00011700   KNL_glue
00011740   CLK_F_getltime
00011754   CLK_F_isr
000118b4   CLK_F_itime
000118b4   _CLK_F_itime
000118b4   _CLK_itime
000118d0   __CLK_lat1beg
000118fc   __CLK_lat1end
00011900   _TSK_exit
00011aa0   __auto_init
00011ce0   _TSK_startup
00011da0   _KNL_check
00011df0   __KNL_lat1beg
00011e78   _KNL_idle
00011e78   __KNL_lat1end
00011e9c   _KNL_max
00011ee0   _GBL_cslCacheInit
00011fc0   _KNL_exit
00012014   _KNL_enter
000120a0   _SEM_postEnterKnl
00012180   _SEM_post
00012180   _SEM_postBinary
00012260   _CLK_measure
00012340   _KNL_ipost
00012400   _KNL_post
000124c0   _LCK_post
000124f0   _LCK_pend
00012580   _SYS_exit
00012640   CLK_F_getfhtime
00012660   CLK_F_gethtime
00012660   CLK_F_getshtime
00012660   CLK_TIMEFXN
00012700   FXN_F_nop
00012708   FXN_F_run
00012708   _FXN_F_run
00012758   FXN_F_zero
00012758   _FXN_F_zero
00012780   IDL_F_busy
00012780   __IDL_lat1beg
000127d0   __IDL_lat1end
00012800   LOG_F_event
00012800   _LOG_event
00012800   __LOG_lat1beg
00012880   STS_F_delta
00012880   _STS_delta
000128b8   STS_F_add
000128b8   _STS_add
000128e4   STS_F_reset
000128e4   _STS_reset
00012900   IDL_F_calibrate
00012980   _SYS_error
000129e0   _HWI_disable
000129f8   _HWI_enable
00012a0c   _HWI_restore
00012a40   _SEM_pend
00012aa0   _SYS_abort
00012b00   SYS_PUTCFXN
00012b00   _UTL_doPutc
00012b60   _CLK_start
00012bc0   IDL_CALIBRFXN
00012bc0   IDL_F_stub
00012c00   RTA_F_andn
00012c20   RTA_F_or
00012c40   SYS_ABORTFXN
00012c40   _UTL_doAbort
00012c80   _CLK_stop
00012cc0   GIO_CREATEFXN
00012cc0   GIO_DELETEFXN
00012cc0   GIO_PENDFXN
00012cc0   GIO_POSTFXN
00012cc0   TSK_VCREATEFXN
00012cc0   TSK_VDELETEFXN
00012cc0   TSK_VEXITFXN
00012cc0   _FXN_F_nop
00012ce0   _GBL_getVersion
00012d00   IDL_F_loop
00012d00   _IDL_loop
00012d20   _STS_set
00012d40   SYS_ERRORFXN
00012d40   _UTL_doError
00012d60   SYS_EXITFXN
00012d60   _UTL_halt
00012d80   _upperbound
00013180   _G
00013580   _Config
000135a8   _frame_min_buffer
000145a8   _mu_k
000149a8   ___atexit_func_id__
00014b58   __IRQ_eventTable
00014bdc   __IRQ_intTable
00014c1c   __IRQ_dispatchTable
00014c24   _KNL_queues
00014cc4   _KNL_dummy
00014cfc   _TSK_ATTRS
00014d18   _TSK_config
00014d38   _TSK_timerSem
00014d58   _OBJ_table
00014d90   _OBJ_segtab
00014dac   __TSK_mutex
00014dd4   __MEM_mutex
00014dfc   _errno
00014eb0   __MCBSP_hDev0
00014eb4   __MCBSP_hDev1
00014f10   _SYS_exitStack
00014f4c   __cleanup_ptr
00014f50   __dtors_ptr
00014f54   ___TI_enable_exit_profile_output
00014f58   __lock
00014f5c   __unlock
00014f70   _dtors
00014f78   ___cinit__
00014f78   cinit
0001658c   RTA_fromHost$buf
000165a0   _RTDX_Poll
000169a0   _RTDX_Buffer_WriteCB
00016fe0   _RTDX_Mon_Queue
00017200   _RTDX_Init_RT_Monitor
00017280   _RTDX_Buffer_Initialize
000172e0   _RTDX_Buffer_ReadCB
00017340   _RTDX_Buffer_Size
00017380   _RTDX_Final_RT_Monitor
000173c0   _RTDX_Buffer_Read
000173e0   _RTDX_Buffer_Write
00017420   _RTDX_Mask_IER
00017440   BIOS_init
00017440   _BIOS_init
000175bc   BIOS$$CLKON
000175fc   BIOS$$CLKOFF
00017664   BIOS_start
00017664   _BIOS_start
00017720   _MEM_init
00017800   _c_int00
000178c0   _TSK_init
00017940   _OBJ_init
00017960   _RTDX_Buffer
00017d68   _RTDX_Buffer_Start
00017d6c   _RTDX_Buffer_End
00017d70   _rtdx_buffer_state
00017d7c   _RTDX_writing
00017d90   _rtdx_mon_state
00017db0   TSK_idle$stack
00018148   TSK_idle$stkptr
000181b0   GBL_stackbeg
000181b0   _HWI_STKTOP
000181b0   __stack
000185a8   _HWI_STKBOTTOM
000185af   GBL_stackend
000185b0   $bss
000185b0   .bss
000185b0   _HWI_dispatchTab
000185b0   ___bss__
000186b0   IDL_D_tabbeg
000186b4   IDL_D_calibrate
000186b8   IDL_D_calbeg
000186bc   LOG_D_system
000186bc   _LOG_D_system
000186c0   PIP_D_tabbeg
000186c4   PIP_D_tablen
000186c8   CLK_R_time
000186cc   CLK_D_timefxn
000186d0   CLK_D_tabbeg
000186d4   CLK_D_isrhook
000186d8   CLK_D_idletime
000186dc   _CLK_htimeDiv
000186e0   _CLK_htimeMult
000186e4   _CLK_ltimeDiv
000186e8   _CLK_ltimeMult
000186ec   _CLK_D_dirty
000186f0   _CLK_D_prd
000186f4   _CLK_D_tddr
000186f8   _CLK_D_countspms
000186fc   PRD_D_tick
000186fc   _PRD_D_tick
00018700   PRD_D_cur
00018704   PRD_D_elapsed
00018708   PRD_D_prevtim
0001870c   PRD_D_scalar
00018710   PRD_D_swihandle
00018714   PRD_D_tabbeg
00018718   PRD_D_tablen
0001871c   PRD_D_thook
00018720   RTA_D_fromHost
00018724   RTA_D_toHost
00018728   RTA_D_logval
00018738   RTA_D_stsval
00018744   HST_D_chanmask
00018748   HST_D_tabbeg
0001874c   HST_D_tabend
00018750   _GBL_procId
00018754   _GBL_clkIn
00018758   _GBL_freq
0001875c   _MEM_D_NUMSEGMENTS
00018760   _MEM_D_memtab
00018764   _MEM_D_freelist
00018768   _MEM_D_lockaddr
0001876c   _MEM_D_unlockaddr
00018770   _SYS
00018774   __HOOK_knlId
00018778   __HOOK_NUMHOOKS
0001877c   _alpha
00018780   _lambda
00018784   _tau
00018788   _in_filt
0001878c   _out_filt
00018790   _gain_var
00018794   _RNR_threhold
00018798   _RNR_flag
0001879c   _H_Codec
000187a0   _C
000187a4   _inbuffer
000187a8   _outbuffer
000187ac   _outframe
000187b0   _inframe
000187b4   _P
000187b8   _last_P
000187bc   _last_PP
000187c0   _PP
000187c4   _inwin
000187c8   _outwin
000187cc   _frame_mag
000187d0   _N
000187d4   _out_buff
000187d8   _speech_prob
000187dc   _local_min
000187e0   _subfactor
000187e4   _speech_thres
000187e8   _ingain
000187ec   _outgain
000187f0   _cpufrac
000187f4   _io_ptr
000187f8   _frame_ptr
000187fc   _frame_count
00018800   _min_buffer_index
00018804   _noise_amp
00018808   _prob_const
0001880c   _sub_const
00018810   _gamma
00018814   _beta
00018818   _v
0001881c   _K
00018820   SWI_D_runaddr
00018820   _SWI_D_runaddr
00018820   _SWI_data
00018824   SWI_D_execaddr
00018824   _SWI_D_execaddr
00018828   SWI_D_curmask
00018828   _SWI_D_curmask
0001882c   SWI_D_curset
0001882c   _SWI_D_curset
00018830   SWI_D_lock
00018830   _SWI_D_lock
00018834   SWI_D_curmbox
00018838   SWI_D_curfxn
00018838   _SWI_D_curfxn
0001883c   SWI_D_rdybeg
0001883c   _SWI_D_rdybeg
00018840   SWI_D_inswi
00018840   _SWI_D_inswi
00018844   SWI_D_rdytab
000188bc   _KNL_wFlag
000188c0   _KNL_wList
000188c4   _KNL_alarm
000188c8   _KNL_setpri
000188cc   _KNL_inactive
000188d0   _KNL_priority
000188d4   _KNL_set
000188d8   _KNL_curtask
000188dc   _KNL_prevtask
000188e0   _KNL_curtime
000188e4   _KNL_swiptr
000188e8   _KNL_curqueue
000188ec   _KNL_maxqueue
000188f0   _KNL_tswitchfxn
000188f4   _KNL_tcreatefxn
000188f8   _KNL_tdeletefxn
000188fc   _KNL_treadyfxn
00018900   _KNL_idlefxn
00018904   _MEM_memtab
00018910   HST_DSMBUFSEG
00018910   IRAM
00018910   MEM_MALLOCSEG
00018910   MEM_SEGZERO
00018910   RTDX_DATAMEMSEG
00018910   _IRAM
00018914   RTA_fromHost$pipe$dtab
00018920   RTA_toHost$pipe$dtab
0001892c   HWI_D_spsave
0001892c   _HWI_D_spsave
0001892c   _HWI_data
00018938   _HWI_D_inhwi
0001893c   HWI_D_bss
00018940   HWI_D_ccmask
00018944   LNK_dspFrameRequestMask
00018944   _LNK_dspFrameRequestMask
00018948   LNK_dspFrameReadyMask
00018948   _LNK_dspFrameReadyMask
0001894c   LNK_readPend
0001894c   _LNK_readPend
00018950   LNK_readDone
00018950   _LNK_readDone
00018954   LNK_readFail
00018954   _LNK_readFail
00018958   LNK_writeFail
00018958   _LNK_writeFail
00018964   _rtdxNullChanCnt
00018968   _rtdxNullFuncCnt
0001896c   _TSK_nTasks
00018970   _TSK_pid
00018974   _TSK
00018978   _CLK_DFLTMICROSECS
0001897c   _CLK_D_microseconds
00018980   _SYS_exitStackPtr
00018984   _SYS_exitStackTop
00018988   _DSK6713_AIC23_codeccontrolhandle
0001898c   _DSK6713_AIC23_codecdatahandle
00018990   _CLK_htimePerLtime
00018998   IDL_D_busyObj
0001899c   _MEM
000189a0   _DSK6713_version
000189a2   ___end__
000189a2   end
000189a4   _SYS_PUTCBEG
00018ba3   _SYS_PUTCEND
00018ca9   KNL_swi$sts$maxfmt
00018cb1   KNL_swi$sts$sumfmt
00018cb9   KNL_swi$sts$avgfmt
00018cc3   TSK_idle$sts$maxfmt
00018ccb   TSK_idle$sts$sumfmt
00018cd3   TSK_idle$sts$avgfmt
00018cdd   IDL_busyObj$maxfmt
00018ce0   IDL_busyObj$sumfmt
00018ce3   IDL_busyObj$avgfmt
00018cec   IDL_A_TABBEG
00018cec   IDL_cpuLoad
00018cec   _IDL_cpuLoad
00018cf0   LNK_dataPump
00018cf0   _LNK_dataPump
00018cf4   RTA_dispatcher
00018cf4   _RTA_dispatcher
00018cf8   IDL_END
00018d00   LOG_system$buf
00018e00   RTA_toHost$buf
00018f00   PIP_A_TABBEG
00018f00   RTA_fromHost$pipe
00018f00   _PIP_A_TABBEG
00018f04   RTA_fromHost$pipe$rd
00018f30   RTA_fromHost$pipe$aaa
00018f34   RTA_fromHost$pipe$wr
00018f60   RTA_fromHost$pipe$bbb
00018f64   RTA_toHost$pipe
00018f68   RTA_toHost$pipe$rd
00018f94   RTA_toHost$pipe$aaa
00018f98   RTA_toHost$pipe$wr
00018fc4   RTA_toHost$pipe$bbb
00018fc8   PIP_A_TABEND
00018fc8   _PIP_A_TABEND
00018fd4   TSK_idle
00018fd4   _TSK_idle
00019028   HST_A_TABBEG
00019028   _HST_A_TABBEG
0001902c   RTA_fromHost
0001902c   _RTA_fromHost
00019034   RTA_fromHost$rtdx
00019048   RTA_toHost
00019048   _RTA_toHost
00019050   RTA_toHost$rtdx
00019064   HST_A_TABEND
00019064   KNL_swi$sts$stsobj
00019064   STS_A_TABBEG
00019064   _HST_A_TABEND
00019064   _STS_A_TABBEG
00019068   KNL_swi$sts
00019074   TSK_idle$sts$stsobj
00019078   TSK_idle$sts
00019084   IDL_busyObj$stsobj
00019088   IDL_busyObj
00019088   _IDL_busyObj
00019094   KNL_swi
00019094   STS_A_TABEND
00019094   SWI_A_TABBEG
00019094   _KNL_swi
00019094   _STS_A_TABEND
000190c0   SWI_A_TABEND
000190e8   LOG_A_TABBEG
000190e8   LOG_system
000190e8   _LOG_A_TABBEG
000190e8   _LOG_system
00019100   IDL_A_CALBEG
00019100   IDL_cpuLoad$
00019100   LOG_A_TABEND
00019100   _LOG_A_TABEND
00019104   LNK_dataPump$
00019108   RTA_dispatcher$
0001910c   IDL_END$
00019110   SYS$config
00019120   ___pinit__
00019120   pinit
0001912c   TRC_cinit
00019130   TRC_R_mask
00019130   _TRC_R_mask
00019134   GBL_initdone
00019138   CLK_A_TABBEG
00019138   PRD_clock
00019138   _PRD_clock
0001913c   CLK_null
00036ee8   CLK_LTIMEMULT
00036ee8   GBL_FREQ
01940000   CLK_REGS
01940000   _CLK_REGS
082039a3   HWI_INTRMULTHIGH
310718af   HWI_INTRMULTLOW
ffffffff   SDRAM
ffffffff   _SDRAM
ffffffff   ___TI_pprof_out_hndl
ffffffff   ___TI_prof_data_size
ffffffff   ___TI_prof_data_start
ffffffff   ___binit__
ffffffff   ___c_args__
ffffffff   binit

[805 symbols]
